; Function Attrs: mustprogress uwtable
define dso_local noundef nonnull align 8 dereferenceable(32) ptr @_ZNR5vcpkg15LocalizedString20append_floating_listEiNS_4SpanIKS0_EE(ptr noundef nonnull returned align 8 dereferenceable(32) %0, i32 noundef %1, ptr %2, i64 %3) local_unnamed_addr #3 align 2 {
  switch i64 %3, label %.lr.ph [
    i64 0, label %.loopexit
    i64 1, label %5
  ]

5:                                                ; preds = %4
  tail call void @_ZNSt7__cxx1112basic_stringIcSt11char_traitsIcESaIcEE9push_backEc(ptr noundef nonnull align 8 dereferenceable(32) %0, i8 noundef signext 32)
  %6 = tail call noundef nonnull align 8 dereferenceable(32) ptr @_ZNSt7__cxx1112basic_stringIcSt11char_traitsIcESaIcEE6appendERKS4_(ptr noundef nonnull align 8 dereferenceable(32) %0, ptr noundef nonnull align 8 dereferenceable(32) %2)
  br label %.loopexit

.lr.ph:                                           ; preds = %4
  %7 = getelementptr inbounds %"struct.vcpkg::LocalizedString", ptr %2, i64 %3
  %8 = sext i32 %1 to i64
  %9 = shl nsw i64 %8, 1
  br label %10

10:                                               ; preds = %.lr.ph, %10
  %.012 = phi ptr [ %2, %.lr.ph ], [ %13, %10 ]
  tail call void @_ZNSt7__cxx1112basic_stringIcSt11char_traitsIcESaIcEE9push_backEc(ptr noundef nonnull align 8 dereferenceable(32) %0, i8 noundef signext 10)
  %11 = tail call noundef nonnull align 8 dereferenceable(32) ptr @_ZNSt7__cxx1112basic_stringIcSt11char_traitsIcESaIcEE6appendEmc(ptr noundef nonnull align 8 dereferenceable(32) %0, i64 noundef %9, i8 noundef signext 32)
  %12 = tail call noundef nonnull align 8 dereferenceable(32) ptr @_ZNSt7__cxx1112basic_stringIcSt11char_traitsIcESaIcEE6appendERKS4_(ptr noundef nonnull align 8 dereferenceable(32) %0, ptr noundef nonnull align 8 dereferenceable(32) %.012)
  %13 = getelementptr inbounds i8, ptr %.012, i64 32
  %.not = icmp eq ptr %13, %7
  br i1 %.not, label %.loopexit, label %10

.loopexit:                                        ; preds = %10, %4, %5
  ret ptr %0
}